
LUTM:	file format elf32-dpu


Disassembly of section .text:

80000000 <__bootstrap>:
80000000: 06 00 00 83 73 3c 00 00      	jnz id, __sys_start_thread
80000008: 00 00 00 46 e3 7c 00 00      	sd zero, 16, 0
80000010: 00 00 04 00 e3 6b 00 00      	move r23, 64

80000018 <__sys_atomic_bit_clear>:
80000018: 06 00 00 82 5f 3c 00 00      	jz r23, __sys_start_thread
80000020: 05 00 00 80 5f 7c 00 00      	release r23, 0, nz, 0x80000028
80000028: 03 00 ff 01 df 2f 00 00      	add r23, r23, -1, true, __sys_atomic_bit_clear

80000030 <__sys_start_thread>:
80000030: 08 00 f0 82 73 3c 00 00      	jeq id, 15, 0x80000040
80000038: 00 00 10 20 f3 7d 00 00      	boot id, 1
80000040: 09 20 81 46 7f 7b 00 00      	ld d22, id8, 37912
80000048: 00 00 b0 00 e3 8b 00 00      	call r23, main

80000050 <__sys_end>:
80000050: 0a 00 00 21 f3 7e 00 00      	stop true, __sys_end

80000058 <main>:
80000058: 00 00 8d 46 5a 7d 00 00      	sd r22, 40, d22
80000060: 00 00 03 00 5b 0b 00 00      	add r22, r22, 48
80000068: ff ff 8d 47 59 7f 00 00      	sd r22, -24, d14
80000070: ff ff 01 47 5a 7f 00 00      	sd r22, -32, d16
80000078: ff ff 85 47 da 7e 00 00      	sd r22, -40, d18
80000080: ff ff 09 47 da 7e 00 00      	sd r22, -48, d20
80000088: 00 00 00 b0 f3 87 00 00      	move r15, id
80000090: 00 00 a4 40 73 88 00 00      	lsl r16, id, 10
80000098: ff ff 0f ff f3 08 00 00      	add r17, id, -16
800000a0: 00 20 81 00 63 60 00 00      	move r0, 1048
800000a8: 00 00 a0 40 70 80 00 00      	lsl_add r0, r0, id, 10
800000b0: ff ff 00 45 d8 7f 00 00      	sw r22, -16, r0
800000b8: 00 00 00 00 63 60 00 00      	move r0, 0
800000c0: 00 00 a0 40 70 80 00 00      	lsl_add r0, r0, id, 10
800000c8: 00 00 00 01 83 09 00 00      	add r19, r0, 16777216
800000d0: 20 00 00 b1 63 80 00 00      	move r0, zero, true, 0x80000100
800000d8: 09 20 8d 00 63 60 00 00      	move r0, 38104
800000e0: 00 00 9c 00 e3 8b 00 00      	call r23, barrier_wait
800000e8: 00 00 01 00 53 00 00 00      	add r0, r20, 16
800000f0: 04 00 00 00 cf 09 00 00      	add r19, r19, 16384
800000f8: 9d 00 0f 95 53 3c 00 00      	jgeu r20, 240, 0x800004e8
80000100: 00 00 00 b0 03 8a 00 00      	move r20, r0
80000108: 29 00 f0 99 3f 3c 00 00      	jgts r15, 15, 0x80000148
80000110: 00 00 00 b0 4f 80 00 00      	move r0, r19
80000118: ff ff 0f 44 db 70 00 00      	lw r1, r22, -16
80000120: 00 00 00 b0 47 81 00 00      	move r2, r17
80000128: 00 00 00 7f 04 70 00 00      	ldma r1, r0, 127
80000130: 04 00 00 00 87 00 00 00      	add r1, r1, 16384
80000138: 04 00 00 00 03 00 00 00      	add r0, r0, 16384
80000140: 25 00 01 09 0b 0d 00 00      	add r2, r2, 16, mi, 0x80000128
80000148: 09 20 8d 00 63 60 00 00      	move r0, 38104
80000150: 00 00 9c 00 e3 8b 00 00      	call r23, barrier_wait
80000158: 00 f0 ff 00 63 60 00 00      	move r0, 4095
80000160: 6f 00 c0 99 40 3c 00 00      	jgts r16, r0, 0x80000378
80000168: 00 00 00 00 63 67 00 00      	move r14, 0
80000170: 00 00 00 00 e3 6a 00 00      	move r21, 0
80000178: 01 00 00 00 63 60 00 00      	move r0, 4096
80000180: 36 00 c0 96 3c 3c 00 00      	jlts r15, r0, 0x800001b0
80000188: 00 00 d5 00 63 8c 00 00      	jump 0x800002e8
80000190: 00 00 10 00 3b 07 00 00      	add r14, r14, 1
80000198: 01 00 00 00 63 60 00 00      	move r0, 4096
800001a0: 01 00 00 00 d7 0a 00 00      	add r21, r21, 4096
800001a8: 1b 00 c0 82 38 3c 00 00      	jeq r14, r0, 0x800000d8
800001b0: 0a 20 8f 40 3b 79 00 00      	lbu r18, r14, 42232
800001b8: 32 00 00 82 4b 3c 00 00      	jz r18, 0x80000190
800001c0: 00 00 0f 00 4b 50 00 00      	and r0, r18, 240
800001c8: 32 00 c8 83 02 3c 00 00      	jneq r0, r20, 0x80000190
800001d0: 09 20 8d 00 63 60 00 00      	move r0, 38104
800001d8: 00 00 9c 00 e3 8b 00 00      	call r23, barrier_wait
800001e0: 00 00 00 b0 43 80 00 00      	move r0, r16
800001e8: 00 00 00 b0 83 80 00 00      	move r1, r0
800001f0: 00 00 c2 00 54 0c 00 00      	add r0, r21, r1
800001f8: 04 20 81 00 63 61 00 00      	move r2, 17432
80000200: 00 00 c2 00 08 0d 00 00      	add r2, r2, r1
80000208: 00 00 00 7f 08 70 00 00      	ldma r2, r0, 127
80000210: fd 0f 00 ff 63 61 00 00      	move r2, -12288
80000218: 04 00 00 00 07 00 00 00      	add r0, r1, 16384
80000220: 3d 00 c4 96 04 3c 00 00      	jlts r1, r2, 0x800001e8
80000228: 00 00 f0 00 4b 59 00 00      	and r18, r18, 15
80000230: 09 20 8d 00 63 60 00 00      	move r0, 38104
80000238: 00 00 9c 00 e3 8b 00 00      	call r23, barrier_wait
80000240: 00 00 00 b0 47 80 00 00      	move r0, r17
80000248: 04 20 81 00 e3 60 00 00      	move r1, 17432
80000250: 00 00 c0 00 84 0c 00 00      	add r1, r1, r0 
80000258: 00 00 01 40 87 70 00 00      	lbu r1, r1, 16
80000260: 00 20 81 00 63 61 00 00      	move r2, 1048
80000268: 00 00 a4 40 48 81 00 00      	lsl_add r2, r2, r18, 10
80000270: 00 00 24 40 84 80 00 00      	lsl_add r1, r2, r1, 2
80000278: 00 00 00 44 87 70 00 00      	lw r1, r1, 0
80000280: 05 20 81 00 63 61 00 00      	move r2, 21528
80000288: 00 00 24 40 00 81 00 00      	lsl_add r2, r2, r0, 2
80000290: 00 00 04 44 8b 71 00 00      	lw r3, r2, 64
80000298: 00 00 c2 00 8c 0c 00 00      	add r1, r3, r1
800002a0: 00 00 01 00 03 00 00 00      	add r0, r0, 16
800002a8: 00 f0 0f 00 e3 61 00 00      	move r3, 4080
800002b0: 00 00 02 44 08 7e 00 00      	sw r2, 64, r1
800002b8: 49 00 c6 96 00 3c 00 00      	jlts r0, r3, 0x80000248
800002c0: 00 00 23 00 63 8c 00 00      	jump 0x80000190
800002c8: 00 00 10 00 3b 07 00 00      	add r14, r14, 1
800002d0: 01 00 00 00 63 60 00 00      	move r0, 4096
800002d8: 01 00 00 00 d7 0a 00 00      	add r21, r21, 4096
800002e0: 1b 00 c0 82 38 3c 00 00      	jeq r14, r0, 0x800000d8
800002e8: 0a 20 8f 40 3b 70 00 00      	lbu r0, r14, 42232
800002f0: 59 00 00 82 03 3c 00 00      	jz r0, 0x800002c8
800002f8: 00 00 0f 00 03 50 00 00      	and r0, r0, 240
80000300: 59 00 c0 83 50 3c 00 00      	jneq r20, r0, 0x800002c8
80000308: 09 20 8d 00 63 60 00 00      	move r0, 38104
80000310: 00 00 9c 00 e3 8b 00 00      	call r23, barrier_wait
80000318: 00 00 00 b0 43 80 00 00      	move r0, r16
80000320: 00 00 00 b0 83 80 00 00      	move r1, r0
80000328: 00 00 c2 00 54 0c 00 00      	add r0, r21, r1
80000330: 04 20 81 00 63 61 00 00      	move r2, 17432
80000338: 00 00 c2 00 08 0d 00 00      	add r2, r2, r1
80000340: 00 00 00 7f 08 70 00 00      	ldma r2, r0, 127
80000348: fd 0f 00 ff 63 61 00 00      	move r2, -12288
80000350: 04 00 00 00 07 00 00 00      	add r0, r1, 16384
80000358: 64 00 c4 96 04 3c 00 00      	jlts r1, r2, 0x80000320
80000360: 09 20 8d 00 63 60 00 00      	move r0, 38104
80000368: 00 00 9c 00 e3 8b 00 00      	call r23, barrier_wait
80000370: 00 00 95 00 63 8c 00 00      	jump 0x800002c8
80000378: 01 00 00 00 e3 6a 00 00      	move r21, 4096
80000380: 73 00 ca 97 3e 3c 00 00      	jges r15, r21, 0x80000398
80000388: 82 00 00 b1 e3 8a 00 00      	move r21, zero, true, 0x80000410
80000390: 1b 00 ff 02 d7 2e 00 00      	add r21, r21, -1, z, 0x800000d8
80000398: 0a 20 8f 00 63 60 00 00      	move r0, 42232
800003a0: 00 00 ca 80 02 0c 00 00      	sub r0, r0, r21
800003a8: 01 00 00 40 03 70 00 00      	lbu r0, r0, 4096
800003b0: 72 00 00 82 03 3c 00 00      	jz r0, 0x80000390
800003b8: 00 00 0f 00 03 50 00 00      	and r0, r0, 240
800003c0: 72 00 c0 83 50 3c 00 00      	jneq r20, r0, 0x80000390
800003c8: 09 20 8d 00 63 67 00 00      	move r14, 38104
800003d0: 00 00 00 b0 3b 80 00 00      	move r0, r14
800003d8: 00 00 9c 00 e3 8b 00 00      	call r23, barrier_wait
800003e0: 00 00 00 b0 3b 80 00 00      	move r0, r14
800003e8: 00 00 9c 00 e3 8b 00 00      	call r23, barrier_wait
800003f0: 00 00 27 00 63 8c 00 00      	jump 0x80000390
800003f8: 00 00 10 00 d7 0a 00 00      	add r21, r21, 1
80000400: 01 00 00 00 63 60 00 00      	move r0, 4096
80000408: 1b 00 c0 82 54 3c 00 00      	jeq r21, r0, 0x800000d8
80000410: 0a 20 8f 40 57 70 00 00      	lbu r0, r21, 42232
80000418: 7f 00 00 82 03 3c 00 00      	jz r0, 0x800003f8
80000420: 00 00 0f 00 83 50 00 00      	and r1, r0, 240
80000428: 7f 00 c8 83 06 3c 00 00      	jneq r1, r20, 0x800003f8
80000430: 00 00 f0 00 03 59 00 00      	and r18, r0, 15
80000438: 09 20 8d 00 63 67 00 00      	move r14, 38104
80000440: 00 00 00 b0 3b 80 00 00      	move r0, r14
80000448: 00 00 9c 00 e3 8b 00 00      	call r23, barrier_wait
80000450: 00 00 00 b0 3b 80 00 00      	move r0, r14
80000458: 00 00 9c 00 e3 8b 00 00      	call r23, barrier_wait
80000460: 00 00 00 b0 47 80 00 00      	move r0, r17
80000468: 04 20 81 00 e3 60 00 00      	move r1, 17432
80000470: 00 00 c0 00 84 0c 00 00      	add r1, r1, r0
80000478: 00 00 01 40 87 70 00 00      	lbu r1, r1, 16
80000480: 00 20 81 00 63 61 00 00      	move r2, 1048
80000488: 00 00 a4 40 48 81 00 00      	lsl_add r2, r2, r18, 10
80000490: 00 00 24 40 84 80 00 00      	lsl_add r1, r2, r1, 2
80000498: 00 00 00 44 87 70 00 00      	lw r1, r1, 0
800004a0: 05 20 81 00 63 61 00 00      	move r2, 21528
800004a8: 00 00 24 40 00 81 00 00      	lsl_add r2, r2, r0, 2
800004b0: 00 00 04 44 8b 71 00 00      	lw r3, r2, 64
800004b8: 00 00 c2 00 8c 0c 00 00      	add r1, r3, r1
800004c0: 00 00 01 00 03 00 00 00      	add r0, r0, 16
800004c8: 00 f0 0f 00 e3 61 00 00      	move r3, 4080
800004d0: 00 00 02 44 08 7e 00 00      	sw r2, 64, r1
800004d8: 8d 00 c6 96 00 3c 00 00      	jlts r0, r3, 0x80000468
800004e0: 00 00 f7 00 63 8c 00 00      	jump 0x800003f8
800004e8: 00 f0 ff 00 63 60 00 00      	move r0, 4095
800004f0: ab 00 c0 98 3c 3c 00 00      	jles r15, r0, 0x80000558
800004f8: 00 00 00 00 63 60 00 00      	move r0, 0
80000500: ff ff 0d 46 5b 7a 00 00      	ld d20, r22, -48
80000508: ff ff 8d 46 5b 79 00 00      	ld d18, r22, -40
80000510: ff ff 0e 46 5b 78 00 00      	ld d16, r22, -32
80000518: ff ff 8e 46 5b 77 00 00      	ld d14, r22, -24
80000520: ff ff 8f 46 5b 7b 00 00      	ld d22, r22, -8
80000528: 00 00 00 00 5f 8c 00 00      	jump r23
80000530: b0 00 00 96 07 3c 00 00      	jlts r1, 0, 0x80000580
80000538: 09 20 84 41 80 7f 00 00      	sb r0, 38136, r2
80000540: 00 f0 0f 00 e3 60 00 00      	move r1, 4080
80000548: 00 00 01 00 83 07 00 00      	add r15, r0, 16
80000550: 9f 00 c2 97 00 3c 00 00      	jges r0, r1, 0x800004f8
80000558: 00 00 00 b0 3f 80 00 00      	move r0, r15
80000560: 00 00 24 40 83 80 00 00      	lsl r1, r0, 2
80000568: 05 20 81 44 87 70 00 00      	lw r1, r1, 21528
80000570: b2 00 00 96 07 3c 00 00      	jlts r1, 0, 0x80000590
80000578: b3 00 00 b1 87 81 00 00      	move r3, r1, true, 0x80000598
80000580: 00 00 08 00 0b 01 00 00      	add r2, r2, 128
80000588: 00 00 7a 00 63 8c 00 00      	jump 0x80000538
80000590: 00 00 00 00 87 21 00 00      	neg r3, r1
80000598: 00 00 00 00 e3 63 00 00      	move r7, 0
800005a0: b7 00 f7 b1 63 83 00 00      	move r6, 127, true, 0x800005b8
800005a8: 00 00 00 b0 a3 83 00 00      	move r7, r8
800005b0: c3 00 cc 99 20 3c 00 00      	jgts r8, r6, 0x80000618
800005b8: 00 00 cc 00 1c 0d 00 00      	add r2, r7, r6
800005c0: 00 00 18 40 0b 81 00 00      	asr r2, r2, 1
800005c8: 00 00 24 40 0b 82 00 00      	lsl r4, r2, 2
800005d0: 00 00 81 44 93 72 00 00      	lw r5, r4, 24
800005d8: c1 00 ca 82 0c 3c 00 00      	jeq r3, r5, 0x80000608
800005e0: 00 00 10 00 0b 02 00 00      	add r4, r2, 1
800005e8: 00 00 00 b0 13 84 00 00      	move r8, r4
800005f0: b5 00 ca 99 0c 3c 00 00      	jgts r3, r5, 0x800005a8
800005f8: ff ff ff ff 0b 03 00 00      	add r6, r2, -1
80000600: b5 00 00 b1 1f 84 00 00      	move r8, r7, true, 0x800005a8
80000608: 00 00 10 00 0b 02 00 00      	add r4, r2, 1
80000610: 00 00 00 b0 8f 82 00 00      	move r5, r3
80000618: 00 00 24 40 13 83 00 00      	lsl r6, r4, 2
80000620: 00 00 81 44 1b 73 00 00      	lw r6, r6, 24
80000628: 00 00 ca 80 8c 0e 00 00      	sub r5, r3, r5
80000630: 00 00 c6 80 98 0d 00 00      	sub r3, r6, r3
80000638: a6 00 c6 96 14 3c 00 00      	jlts r5, r3, 0x80000530
80000640: a6 00 00 b1 13 81 00 00      	move r2, r4, true, 0x80000530

80000648 <barrier_wait>:
80000648: 00 00 30 41 83 70 00 00      	lbs r1, r0, 3
80000650: ca 00 00 83 07 7c 00 00      	acquire r1, 0, nz, 0x80000650
80000658: 00 00 10 40 83 71 00 00      	lbu r3, r0, 1
80000660: 00 00 00 40 03 71 00 00      	lbu r2, r0, 0
80000668: d9 00 10 82 0f 3c 00 00      	jeq r3, 1, 0x800006c8
80000670: 00 00 00 b0 73 82 00 00      	move r4, id
80000678: e6 00 ff 82 0b 3c 00 00      	jeq r2, 255, 0x80000730
80000680: 09 20 cd 41 8b 72 00 00      	lbs r5, r2, 38108
80000688: 09 20 ca 41 90 7e 00 00      	sb r4, 38108, r5
80000690: 09 20 c8 41 88 7e 00 00      	sb r2, 38108, r4
80000698: 00 00 08 40 00 7c 00 00      	sb r0, 0, r4
800006a0: ff ff ff ff 0f 01 00 00      	add r2, r3, -1
800006a8: 00 00 14 40 00 7c 00 00      	sb r0, 1, r2
800006b0: d7 00 00 80 07 7c 00 00      	release r1, 0, nz, 0x800006b8
800006b8: 00 00 00 20 f3 7e 00 00      	stop
800006c0: 00 00 00 00 5f 8c 00 00      	jump r23
800006c8: e4 00 ff 82 0b 3c 00 00      	jeq r2, 255, 0x80000720
800006d0: 09 20 cd 40 8b 71 00 00      	lbu r3, r2, 38108
800006d8: e0 00 c4 82 0c 3c 00 00      	jeq r3, r2, 0x80000700
800006e0: dc 00 00 23 0f 7d 00 00      	resume r3, 0, nz, 0x800006e0
800006e8: 00 00 ff 00 8f 51 00 00      	and r3, r3, 255
800006f0: 09 20 cd 40 8f 71 00 00      	lbu r3, r3, 38108
800006f8: dc 00 c4 83 0c 3c 00 00      	jneq r3, r2, 0x800006e0
80000700: e0 00 00 23 0b 7d 00 00      	resume r2, 0, nz, 0x80000700
80000708: 0f 00 0f 40 03 7c 00 00      	sb r0, 0, -1
80000710: 00 00 20 41 03 71 00 00      	lbs r2, r0, 2
80000718: 00 00 14 40 00 7c 00 00      	sb r0, 1, r2
80000720: e5 00 00 80 07 7c 00 00      	release r1, 0, nz, 0x80000728
80000728: 00 00 00 00 5f 8c 00 00      	jump r23
80000730: 09 20 c8 41 90 7e 00 00      	sb r4, 38108, r4
80000738: 00 00 3d 00 63 8c 00 00      	jump 0x80000698
